; Function Attrs: nounwind uwtable
define dso_local ptr @genAofTimestampAnnotationIfNeeded(i32 noundef %0) local_unnamed_addr #0 {
  %.not = icmp eq i32 %0, 0
  br i1 %.not, label %2, label %.critedge

2:                                                ; preds = %1
  %3 = load i64, ptr getelementptr inbounds nuw (i8, ptr @server, i64 6648), align 8, !tbaa !121
  %4 = load atomic i64, ptr getelementptr inbounds nuw (i8, ptr @server, i64 7784) seq_cst, align 8, !tbaa !92
  %5 = icmp slt i64 %3, %4
  br i1 %5, label %7, label %sdslen.exit.thread

.critedge:                                        ; preds = %1
  %6 = tail call i64 @time(ptr noundef null) #20
  br label %9

7:                                                ; preds = %2
  %8 = load atomic i64, ptr getelementptr inbounds nuw (i8, ptr @server, i64 7784) seq_cst, align 8, !tbaa !92
  br label %9

9:                                                ; preds = %7, %.critedge
  %10 = phi i64 [ %6, %.critedge ], [ %8, %7 ]
  store i64 %10, ptr getelementptr inbounds nuw (i8, ptr @server, i64 6648), align 8, !tbaa !121
  %11 = tail call ptr @sdsempty() #20
  %12 = load i64, ptr getelementptr inbounds nuw (i8, ptr @server, i64 6648), align 8, !tbaa !121
  %13 = tail call ptr (ptr, ptr, ...) @sdscatfmt(ptr noundef %11, ptr noundef nonnull @.str.88, i64 noundef %12) #20
  %14 = getelementptr inbounds i8, ptr %13, i64 -1
  %15 = load i8, ptr %14, align 1, !tbaa !18
  %16 = and i8 %15, 7
  switch i8 %16, label %sdslen.exit.thread [
    i8 4, label %25
    i8 3, label %21
    i8 2, label %17
  ]

17:                                               ; preds = %9
  %18 = getelementptr inbounds i8, ptr %13, i64 -5
  %19 = load i16, ptr %18, align 1, !tbaa !19
  %20 = zext i16 %19 to i64
  br label %sdslen.exit

21:                                               ; preds = %9
  %22 = getelementptr inbounds i8, ptr %13, i64 -9
  %23 = load i32, ptr %22, align 1, !tbaa !21
  %24 = zext i32 %23 to i64
  br label %sdslen.exit

25:                                               ; preds = %9
  %26 = getelementptr inbounds i8, ptr %13, i64 -17
  %27 = load i64, ptr %26, align 1, !tbaa !22
  br label %sdslen.exit

sdslen.exit:                                      ; preds = %17, %21, %25
  %.0.i = phi i64 [ %27, %25 ], [ %24, %21 ], [ %20, %17 ]
  %28 = icmp ult i64 %.0.i, 1025
  br i1 %28, label %sdslen.exit.thread, label %29, !prof !122

29:                                               ; preds = %sdslen.exit
  tail call void @_serverAssert(ptr noundef nonnull @.str.89, ptr noundef nonnull @.str.1, i32 noundef 1391) #20
  tail call void @abort() #21
  unreachable

sdslen.exit.thread:                               ; preds = %9, %sdslen.exit, %2
  %.0 = phi ptr [ %13, %sdslen.exit ], [ null, %2 ], [ %13, %9 ]
  ret ptr %.0
}